; Function Attrs: null_pointer_is_valid sspstrong uwtable
define internal i32 @dissect_f1ap(ptr noundef %0, ptr noundef %1, ptr noundef %2, ptr readnone captures(none) %3) #0 {
  %5 = alloca %struct._asn1_ctx_t, align 8
  %6 = getelementptr inbounds nuw i8, ptr %1, i64 8
  %7 = load ptr, ptr %6, align 8
  tail call void @col_set_str(ptr noundef %7, i32 noundef 35, ptr noundef nonnull @.str.4936)
  %8 = load ptr, ptr %6, align 8
  tail call void @col_clear(ptr noundef %8, i32 noundef 25)
  %9 = getelementptr inbounds nuw i8, ptr %1, i64 408
  %10 = load ptr, ptr %9, align 8
  %11 = tail call noalias dereferenceable_or_null(4) ptr @wmem_alloc(ptr noundef %10, i64 noundef 4) #7
  store i32 0, ptr %11, align 4
  %12 = load i32, ptr @proto_f1ap, align 4
  %13 = tail call ptr @proto_tree_add_item(ptr noundef %2, i32 noundef %12, ptr noundef %0, i32 noundef 0, i32 noundef -1, i32 noundef 0)
  %14 = load i32, ptr @ett_f1ap, align 4
  %15 = tail call ptr @proto_item_add_subtree(ptr noundef %13, i32 noundef %14)
  store ptr %15, ptr @top_tree, align 8
  %16 = tail call ptr @wmem_file_scope()
  %17 = load i32, ptr @proto_f1ap, align 4
  %18 = tail call ptr @p_get_proto_data(ptr noundef %16, ptr noundef %1, i32 noundef %17, i32 noundef 0)
  %.not.i = icmp eq ptr %18, null
  br i1 %.not.i, label %19, label %f1ap_get_private_data.exit

19:                                               ; preds = %4
  %20 = tail call ptr @wmem_file_scope()
  %21 = tail call noalias dereferenceable_or_null(48) ptr @wmem_alloc0(ptr noundef %20, i64 noundef 48) #7
  %22 = getelementptr inbounds nuw i8, ptr %21, i64 28
  store i32 -1, ptr %22, align 4
  %23 = getelementptr inbounds nuw i8, ptr %21, i64 32
  store i32 1, ptr %23, align 8
  %24 = tail call ptr @wmem_file_scope()
  %25 = load i32, ptr @proto_f1ap, align 4
  tail call void @p_add_proto_data(ptr noundef %24, ptr noundef %1, i32 noundef %25, i32 noundef 0, ptr noundef %21)
  br label %f1ap_get_private_data.exit

f1ap_get_private_data.exit:                       ; preds = %4, %19
  %.0.i = phi ptr [ %18, %4 ], [ %21, %19 ]
  %26 = getelementptr inbounds nuw i8, ptr %.0.i, i64 40
  store ptr %11, ptr %26, align 8
  call void @llvm.lifetime.start.p0(i64 208, ptr nonnull %5) #6
  call void @asn1_ctx_init(ptr noundef nonnull %5, i32 noundef 1, i1 noundef zeroext true, ptr noundef %1)
  %27 = load i32, ptr @hf_f1ap_F1AP_PDU_PDU, align 4
  %28 = load i32, ptr @ett_f1ap_F1AP_PDU, align 4
  %29 = call i32 @dissect_per_choice(ptr noundef %0, i32 noundef 0, ptr noundef nonnull %5, ptr noundef %15, i32 noundef %27, i32 noundef %28, ptr noundef nonnull @F1AP_PDU_choice, ptr noundef null)
  call void @llvm.lifetime.end.p0(i64 208, ptr nonnull %5) #6
  %30 = load i32, ptr @f1ap_tap, align 4
  call void @tap_queue_packet(i32 noundef %30, ptr noundef %1, ptr noundef %11)
  %31 = call i32 @tvb_captured_length(ptr noundef %0)
  ret i32 %31
}